target datalayout = "e-m:e-p270:32:32-p271:32:32-p272:64:64-i64:64-i128:128-f80:128-n8:16:32:64-S128"
target triple = "x86_64-pc-linux-gnu"

%struct.prov_cipher_hw_st = type { ptr, ptr, ptr }

@wrap_cbc = internal constant %struct.prov_cipher_hw_st { ptr @ossl_cipher_hw_tdes_ede3_initkey, ptr @ossl_cipher_hw_tdes_cbc, ptr @ossl_cipher_hw_tdes_copyctx }, align 8

; Function Attrs: nounwind uwtable
define ptr @ossl_prov_cipher_hw_tdes_wrap_cbc() #0 {
  ret ptr @wrap_cbc
}

declare i32 @ossl_cipher_hw_tdes_ede3_initkey(ptr noundef, ptr noundef, i64 noundef) #1

declare i32 @ossl_cipher_hw_tdes_cbc(ptr noundef, ptr noundef, ptr noundef, i64 noundef) #1

declare void @ossl_cipher_hw_tdes_copyctx(ptr noundef, ptr noundef) #1


!llvm.module.flags = !{!0, !1, !2}

!0 = !{i32 1, !"wchar_size", i32 4}
!1 = !{i32 8, !"PIC Level", i32 2}
!2 = !{i32 7, !"uwtable", i32 2}
